target datalayout = "e-m:e-p270:32:32-p271:32:32-p272:64:64-i64:64-i128:128-f80:128-n8:16:32:64-S128"
target triple = "x86_64-pc-linux-gnu"

%"struct.Eigen::CommaInitializer" = type { ptr, i64, i64, i64 }
%"class.g2o::BaseVertex" = type { %"class.g2o::OptimizableGraph::Vertex", %"class.Eigen::Map", %"class.Eigen::Matrix", %"class.Eigen::Matrix.11", %"class.std::stack" }
%"class.g2o::OptimizableGraph::Vertex" = type { %"class.g2o::HyperGraph::Vertex", %"class.g2o::HyperGraph::DataContainer", ptr, ptr, i32, i8, i8, i32, i32, [8 x i8], ptr }
%"class.g2o::HyperGraph::Vertex" = type { %"struct.g2o::HyperGraph::HyperGraphElement", i32, %"class.std::set" }
%"struct.g2o::HyperGraph::HyperGraphElement" = type { ptr }
%"class.std::set" = type { %"class.std::_Rb_tree" }
%"class.std::_Rb_tree" = type { %"struct.std::_Rb_tree<g2o::HyperGraph::Edge *, g2o::HyperGraph::Edge *, std::_Identity<g2o::HyperGraph::Edge *>, std::less<g2o::HyperGraph::Edge *>>::_Rb_tree_impl" }
%"struct.std::_Rb_tree<g2o::HyperGraph::Edge *, g2o::HyperGraph::Edge *, std::_Identity<g2o::HyperGraph::Edge *>, std::less<g2o::HyperGraph::Edge *>>::_Rb_tree_impl" = type { [8 x i8], %"struct.std::_Rb_tree_header" }
%"struct.std::_Rb_tree_header" = type { %"struct.std::_Rb_tree_node_base", i64 }
%"struct.std::_Rb_tree_node_base" = type { i32, ptr, ptr, ptr }
%"class.g2o::HyperGraph::DataContainer" = type { ptr, ptr }
%"class.Eigen::Map" = type { %"class.Eigen::MapBase.base.4", [6 x i8] }
%"class.Eigen::MapBase.base.4" = type { %"class.Eigen::MapBase.base" }
%"class.Eigen::MapBase.base" = type <{ ptr, [2 x i8] }>
%"class.Eigen::Matrix" = type { %"class.Eigen::PlainObjectBase" }
%"class.Eigen::PlainObjectBase" = type { %"class.Eigen::DenseStorage" }
%"class.Eigen::DenseStorage" = type { %"struct.Eigen::internal::plain_array" }
%"struct.Eigen::internal::plain_array" = type { [4 x double] }
%"class.Eigen::Matrix.11" = type { %"class.Eigen::PlainObjectBase.12" }
%"class.Eigen::PlainObjectBase.12" = type { %"class.Eigen::DenseStorage.19" }
%"class.Eigen::DenseStorage.19" = type { %"struct.Eigen::internal::plain_array.20" }
%"struct.Eigen::internal::plain_array.20" = type { [5 x double] }
%"class.std::stack" = type { %"class.std::vector" }
%"class.std::vector" = type { %"struct.std::_Vector_base" }
%"struct.std::_Vector_base" = type { %"struct.std::_Vector_base<Eigen::Matrix<double, 5, 1, 0>, std::allocator<Eigen::Matrix<double, 5, 1, 0>>>::_Vector_impl" }
%"struct.std::_Vector_base<Eigen::Matrix<double, 5, 1, 0>, std::allocator<Eigen::Matrix<double, 5, 1, 0>>>::_Vector_impl" = type { %"struct.std::_Vector_base<Eigen::Matrix<double, 5, 1, 0>, std::allocator<Eigen::Matrix<double, 5, 1, 0>>>::_Vector_impl_data" }
%"struct.std::_Vector_base<Eigen::Matrix<double, 5, 1, 0>, std::allocator<Eigen::Matrix<double, 5, 1, 0>>>::_Vector_impl_data" = type { ptr, ptr, ptr }

; Function Attrs: mustprogress nounwind uwtable
define linkonce_odr noundef i64 @_ZN5Eigen12DenseStorageIdLi5ELi5ELi1ELi0EE4rowsEv() #1 comdat align 2 {
  ret i64 5
}

; Function Attrs: mustprogress nounwind uwtable
define linkonce_odr noundef ptr @_ZN5Eigen12DenseStorageIdLi5ELi5ELi1ELi0EE4dataEv(ptr noundef nonnull align 8 dereferenceable(40) %0) #1 comdat align 2 {
  %2 = alloca ptr, align 8
  store ptr %0, ptr %2, align 8, !tbaa !154
  %3 = load ptr, ptr %2, align 8
  %4 = getelementptr inbounds nuw %"class.Eigen::DenseStorage.19", ptr %3, i32 0, i32 0
  %5 = getelementptr inbounds nuw %"struct.Eigen::internal::plain_array.20", ptr %4, i32 0, i32 0
  %6 = getelementptr inbounds [5 x double], ptr %5, i64 0, i64 0
  ret ptr %6
}

; Function Attrs: mustprogress nounwind uwtable
define linkonce_odr noundef i64 @_ZN5Eigen12DenseStorageIdLi5ELi5ELi1ELi0EE4colsEv() #1 comdat align 2 {
  ret i64 1
}

; Function Attrs: noinline noreturn nounwind uwtable
define linkonce_odr hidden void @__clang_call_terminate(ptr noundef %0) #10 comdat {
  %2 = call ptr @__cxa_begin_catch(ptr %0) #6
  call void @_ZSt9terminatev() #29
  unreachable
}

; Function Attrs: inlinehint mustprogress nounwind uwtable
define linkonce_odr noundef nonnull align 8 dereferenceable(40) ptr @_ZN5Eigen16CommaInitializerINS_6MatrixIdLi5ELi1ELi0ELi5ELi1EEEE8finishedEv(ptr noundef nonnull align 8 dereferenceable(32) %0) #8 comdat align 2 {
  %2 = alloca ptr, align 8
  store ptr %0, ptr %2, align 8, !tbaa !49
  %3 = load ptr, ptr %2, align 8
  %4 = getelementptr inbounds nuw %"struct.Eigen::CommaInitializer", ptr %3, i32 0, i32 0
  %5 = load ptr, ptr %4, align 8, !tbaa !54
  ret ptr %5
}

; Function Attrs: inlinehint mustprogress uwtable
define linkonce_odr noundef nonnull align 8 dereferenceable(8) ptr @_ZN5Eigen15PlainObjectBaseINS_6MatrixIdLi5ELi1ELi0ELi5ELi1EEEE8coeffRefEll(ptr noundef nonnull align 8 dereferenceable(40) %0, i64 noundef %1, i64 noundef %2) #7 comdat align 2 {
  %4 = alloca ptr, align 8
  %5 = alloca i64, align 8
  %6 = alloca i64, align 8
  store ptr %0, ptr %4, align 8, !tbaa !150
  store i64 %1, ptr %5, align 8, !tbaa !69
  store i64 %2, ptr %6, align 8, !tbaa !69
  %7 = load ptr, ptr %4, align 8
  %8 = getelementptr inbounds nuw %"class.Eigen::PlainObjectBase.12", ptr %7, i32 0, i32 0
  %9 = call noundef ptr @_ZN5Eigen12DenseStorageIdLi5ELi5ELi1ELi0EE4dataEv(ptr noundef nonnull align 8 dereferenceable(40) %8)
  %10 = load i64, ptr %5, align 8, !tbaa !69
  %11 = load i64, ptr %6, align 8, !tbaa !69
  %12 = call noundef i64 @_ZN5Eigen12DenseStorageIdLi5ELi5ELi1ELi0EE4rowsEv() #6
  %13 = mul nsw i64 %11, %12
  %14 = add nsw i64 %10, %13
  %15 = getelementptr inbounds double, ptr %9, i64 %14
  ret ptr %15
}

; Function Attrs: inlinehint mustprogress nounwind uwtable
define linkonce_odr noundef i64 @_ZNK5Eigen15PlainObjectBaseINS_6MatrixIdLi5ELi1ELi0ELi5ELi1EEEE4colsEv(ptr noundef nonnull align 8 dereferenceable(40) %0) #8 comdat align 2 {
  %2 = alloca ptr, align 8
  store ptr %0, ptr %2, align 8, !tbaa !150
  %3 = call noundef i64 @_ZN5Eigen12DenseStorageIdLi5ELi5ELi1ELi0EE4colsEv() #6
  ret i64 %3
}

; Function Attrs: inlinehint mustprogress uwtable
define linkonce_odr void @_ZN5Eigen16CommaInitializerINS_6MatrixIdLi5ELi1ELi0ELi5ELi1EEEEC2ERS2_RKd(ptr noundef nonnull align 8 dereferenceable(32) %0, ptr noundef nonnull align 8 dereferenceable(40) %1, ptr noundef nonnull align 8 dereferenceable(8) %2) unnamed_addr #7 comdat align 2 {
  %4 = alloca ptr, align 8
  %5 = alloca ptr, align 8
  %6 = alloca ptr, align 8
  store ptr %0, ptr %4, align 8, !tbaa !49
  store ptr %1, ptr %5, align 8, !tbaa !94
  store ptr %2, ptr %6, align 8, !tbaa !45
  %7 = load ptr, ptr %4, align 8
  %8 = getelementptr inbounds nuw %"struct.Eigen::CommaInitializer", ptr %7, i32 0, i32 0
  %9 = load ptr, ptr %5, align 8, !tbaa !94
  store ptr %9, ptr %8, align 8, !tbaa !94
  %10 = getelementptr inbounds nuw %"struct.Eigen::CommaInitializer", ptr %7, i32 0, i32 1
  store i64 0, ptr %10, align 8, !tbaa !56
  %11 = getelementptr inbounds nuw %"struct.Eigen::CommaInitializer", ptr %7, i32 0, i32 2
  store i64 1, ptr %11, align 8, !tbaa !51
  %12 = getelementptr inbounds nuw %"struct.Eigen::CommaInitializer", ptr %7, i32 0, i32 3
  store i64 1, ptr %12, align 8, !tbaa !55
  %13 = load ptr, ptr %6, align 8, !tbaa !45
  %14 = load double, ptr %13, align 8, !tbaa !18
  %15 = getelementptr inbounds nuw %"struct.Eigen::CommaInitializer", ptr %7, i32 0, i32 0
  %16 = load ptr, ptr %15, align 8, !tbaa !54
  %17 = call noundef nonnull align 8 dereferenceable(8) ptr @_ZN5Eigen15PlainObjectBaseINS_6MatrixIdLi5ELi1ELi0ELi5ELi1EEEE8coeffRefEll(ptr noundef nonnull align 8 dereferenceable(40) %16, i64 noundef 0, i64 noundef 0)
  store double %14, ptr %17, align 8, !tbaa !18
  ret void
}

; Function Attrs: inlinehint mustprogress nounwind uwtable
define linkonce_odr void @_ZN5Eigen16CommaInitializerINS_6MatrixIdLi5ELi1ELi0ELi5ELi1EEEED2Ev(ptr noundef nonnull align 8 dereferenceable(32) %0) unnamed_addr #8 comdat align 2 personality ptr @__gxx_personality_v0 {
  %2 = alloca ptr, align 8
  store ptr %0, ptr %2, align 8, !tbaa !49
  %3 = load ptr, ptr %2, align 8
  %4 = invoke noundef nonnull align 8 dereferenceable(40) ptr @_ZN5Eigen16CommaInitializerINS_6MatrixIdLi5ELi1ELi0ELi5ELi1EEEE8finishedEv(ptr noundef nonnull align 8 dereferenceable(32) %3)
          to label %5 unwind label %6

5:                                                ; preds = %1
  ret void

6:                                                ; preds = %1
  %7 = landingpad { ptr, i32 }
          catch ptr null
  %8 = extractvalue { ptr, i32 } %7, 0
  call void @__clang_call_terminate(ptr %8) #29
  unreachable
}

; Function Attrs: mustprogress uwtable
define linkonce_odr noundef nonnull align 8 dereferenceable(32) ptr @_ZN5Eigen16CommaInitializerINS_6MatrixIdLi5ELi1ELi0ELi5ELi1EEEEcmERKd(ptr noundef nonnull align 8 dereferenceable(32) %0, ptr noundef nonnull align 8 dereferenceable(8) %1) #3 comdat align 2 {
  %3 = alloca ptr, align 8
  %4 = alloca ptr, align 8
  store ptr %0, ptr %3, align 8, !tbaa !49
  store ptr %1, ptr %4, align 8, !tbaa !45
  %5 = load ptr, ptr %3, align 8
  %6 = getelementptr inbounds nuw %"struct.Eigen::CommaInitializer", ptr %5, i32 0, i32 2
  %7 = load i64, ptr %6, align 8, !tbaa !51
  %8 = getelementptr inbounds nuw %"struct.Eigen::CommaInitializer", ptr %5, i32 0, i32 0
  %9 = load ptr, ptr %8, align 8, !tbaa !54
  %10 = call noundef i64 @_ZNK5Eigen15PlainObjectBaseINS_6MatrixIdLi5ELi1ELi0ELi5ELi1EEEE4colsEv(ptr noundef nonnull align 8 dereferenceable(40) %9) #6
  %11 = icmp eq i64 %7, %10
  br i1 %11, label %12, label %20

12:                                               ; preds = %2
  %13 = getelementptr inbounds nuw %"struct.Eigen::CommaInitializer", ptr %5, i32 0, i32 3
  %14 = load i64, ptr %13, align 8, !tbaa !55
  %15 = getelementptr inbounds nuw %"struct.Eigen::CommaInitializer", ptr %5, i32 0, i32 1
  %16 = load i64, ptr %15, align 8, !tbaa !56
  %17 = add nsw i64 %16, %14
  store i64 %17, ptr %15, align 8, !tbaa !56
  %18 = getelementptr inbounds nuw %"struct.Eigen::CommaInitializer", ptr %5, i32 0, i32 2
  store i64 0, ptr %18, align 8, !tbaa !51
  %19 = getelementptr inbounds nuw %"struct.Eigen::CommaInitializer", ptr %5, i32 0, i32 3
  store i64 1, ptr %19, align 8, !tbaa !55
  br label %20

20:                                               ; preds = %12, %2
  %21 = load ptr, ptr %4, align 8, !tbaa !45
  %22 = load double, ptr %21, align 8, !tbaa !18
  %23 = getelementptr inbounds nuw %"struct.Eigen::CommaInitializer", ptr %5, i32 0, i32 0
  %24 = load ptr, ptr %23, align 8, !tbaa !54
  %25 = getelementptr inbounds nuw %"struct.Eigen::CommaInitializer", ptr %5, i32 0, i32 1
  %26 = load i64, ptr %25, align 8, !tbaa !56
  %27 = getelementptr inbounds nuw %"struct.Eigen::CommaInitializer", ptr %5, i32 0, i32 2
  %28 = load i64, ptr %27, align 8, !tbaa !51
  %29 = add nsw i64 %28, 1
  store i64 %29, ptr %27, align 8, !tbaa !51
  %30 = call noundef nonnull align 8 dereferenceable(8) ptr @_ZN5Eigen15PlainObjectBaseINS_6MatrixIdLi5ELi1ELi0ELi5ELi1EEEE8coeffRefEll(ptr noundef nonnull align 8 dereferenceable(40) %24, i64 noundef %26, i64 noundef %28)
  store double %22, ptr %30, align 8, !tbaa !18
  ret ptr %5
}

; Function Attrs: inlinehint mustprogress uwtable
define linkonce_odr void @_ZN5Eigen9DenseBaseINS_6MatrixIdLi5ELi1ELi0ELi5ELi1EEEElsERKd(ptr dead_on_unwind noalias writable sret(%"struct.Eigen::CommaInitializer") align 8 %0, ptr noundef nonnull align 1 dereferenceable(1) %1, ptr noundef nonnull align 8 dereferenceable(8) %2) #7 comdat align 2 {
  %4 = alloca ptr, align 8
  %5 = alloca ptr, align 8
  %6 = alloca ptr, align 8
  store ptr %0, ptr %4, align 8
  store ptr %1, ptr %5, align 8, !tbaa !43
  store ptr %2, ptr %6, align 8, !tbaa !45
  %7 = load ptr, ptr %5, align 8
  %8 = load ptr, ptr %6, align 8, !tbaa !45
  call void @_ZN5Eigen16CommaInitializerINS_6MatrixIdLi5ELi1ELi0ELi5ELi1EEEEC2ERS2_RKd(ptr noundef nonnull align 8 dereferenceable(32) %0, ptr noundef nonnull align 8 dereferenceable(40) %7, ptr noundef nonnull align 8 dereferenceable(8) %8)
  ret void
}

; Function Attrs: inlinehint mustprogress nounwind uwtable
define linkonce_odr noundef double @_ZN3g2o3cstEe(x86_fp80 noundef %0) #8 comdat {
  %2 = alloca x86_fp80, align 16
  store x86_fp80 %0, ptr %2, align 16, !tbaa !47
  %3 = load x86_fp80, ptr %2, align 16, !tbaa !47
  %4 = fptrunc x86_fp80 %3 to double
  ret double %4
}

; Function Attrs: mustprogress uwtable
define void @_ZN3g2o16VertexIntrinsics15setToOriginImplEv(ptr noundef nonnull align 16 dereferenceable(240) %0) unnamed_addr #3 align 2 personality ptr @__gxx_personality_v0 {
  %2 = alloca ptr, align 8
  %3 = alloca %"struct.Eigen::CommaInitializer", align 8
  %4 = alloca double, align 8
  %5 = alloca double, align 8
  %6 = alloca ptr, align 8
  %7 = alloca i32, align 4
  %8 = alloca double, align 8
  %9 = alloca double, align 8
  %10 = alloca double, align 8
  store ptr %0, ptr %2, align 8, !tbaa !14
  %11 = load ptr, ptr %2, align 8
  call void @llvm.lifetime.start.p0(i64 32, ptr %3) #6
  %12 = getelementptr inbounds nuw %"class.g2o::BaseVertex", ptr %11, i32 0, i32 3
  call void @llvm.lifetime.start.p0(i64 8, ptr %4) #6
  %13 = call noundef double @_ZN3g2o3cstEe(x86_fp80 noundef 0xK3FFF8000000000000000)
  store double %13, ptr %4, align 8, !tbaa !18
  call void @_ZN5Eigen9DenseBaseINS_6MatrixIdLi5ELi1ELi0ELi5ELi1EEEElsERKd(ptr dead_on_unwind writable sret(%"struct.Eigen::CommaInitializer") align 8 %3, ptr noundef nonnull align 1 dereferenceable(1) %12, ptr noundef nonnull align 8 dereferenceable(8) %4)
  call void @llvm.lifetime.start.p0(i64 8, ptr %5) #6
  %14 = invoke noundef double @_ZN3g2o3cstEe(x86_fp80 noundef 0xK3FFF8000000000000000)
          to label %15 unwind label %30

15:                                               ; preds = %1
  store double %14, ptr %5, align 8, !tbaa !18
  %16 = invoke noundef nonnull align 8 dereferenceable(32) ptr @_ZN5Eigen16CommaInitializerINS_6MatrixIdLi5ELi1ELi0ELi5ELi1EEEEcmERKd(ptr noundef nonnull align 8 dereferenceable(32) %3, ptr noundef nonnull align 8 dereferenceable(8) %5)
          to label %17 unwind label %30

17:                                               ; preds = %15
  call void @llvm.lifetime.start.p0(i64 8, ptr %8) #6
  %18 = invoke noundef double @_ZN3g2o3cstEe(x86_fp80 noundef 0xK3FFE8000000000000000)
          to label %19 unwind label %34

19:                                               ; preds = %17
  store double %18, ptr %8, align 8, !tbaa !18
  %20 = invoke noundef nonnull align 8 dereferenceable(32) ptr @_ZN5Eigen16CommaInitializerINS_6MatrixIdLi5ELi1ELi0ELi5ELi1EEEEcmERKd(ptr noundef nonnull align 8 dereferenceable(32) %16, ptr noundef nonnull align 8 dereferenceable(8) %8)
          to label %21 unwind label %34

21:                                               ; preds = %19
  call void @llvm.lifetime.start.p0(i64 8, ptr %9) #6
  %22 = invoke noundef double @_ZN3g2o3cstEe(x86_fp80 noundef 0xK3FFE8000000000000000)
          to label %23 unwind label %38

23:                                               ; preds = %21
  store double %22, ptr %9, align 8, !tbaa !18
  %24 = invoke noundef nonnull align 8 dereferenceable(32) ptr @_ZN5Eigen16CommaInitializerINS_6MatrixIdLi5ELi1ELi0ELi5ELi1EEEEcmERKd(ptr noundef nonnull align 8 dereferenceable(32) %20, ptr noundef nonnull align 8 dereferenceable(8) %9)
          to label %25 unwind label %38

25:                                               ; preds = %23
  call void @llvm.lifetime.start.p0(i64 8, ptr %10) #6
  %26 = invoke noundef double @_ZN3g2o3cstEe(x86_fp80 noundef 0xK3FFBCCCCCCCCCCCCD000)
          to label %27 unwind label %42

27:                                               ; preds = %25
  store double %26, ptr %10, align 8, !tbaa !18
  %28 = invoke noundef nonnull align 8 dereferenceable(32) ptr @_ZN5Eigen16CommaInitializerINS_6MatrixIdLi5ELi1ELi0ELi5ELi1EEEEcmERKd(ptr noundef nonnull align 8 dereferenceable(32) %24, ptr noundef nonnull align 8 dereferenceable(8) %10)
          to label %29 unwind label %42

29:                                               ; preds = %27
  call void @llvm.lifetime.end.p0(i64 8, ptr %10) #6
  call void @llvm.lifetime.end.p0(i64 8, ptr %9) #6
  call void @llvm.lifetime.end.p0(i64 8, ptr %8) #6
  call void @llvm.lifetime.end.p0(i64 8, ptr %5) #6
  call void @_ZN5Eigen16CommaInitializerINS_6MatrixIdLi5ELi1ELi0ELi5ELi1EEEED2Ev(ptr noundef nonnull align 8 dereferenceable(32) %3) #6
  call void @llvm.lifetime.end.p0(i64 8, ptr %4) #6
  call void @llvm.lifetime.end.p0(i64 32, ptr %3) #6
  ret void

30:                                               ; preds = %15, %1
  %31 = landingpad { ptr, i32 }
          cleanup
  %32 = extractvalue { ptr, i32 } %31, 0
  store ptr %32, ptr %6, align 8
  %33 = extractvalue { ptr, i32 } %31, 1
  store i32 %33, ptr %7, align 4
  br label %48

34:                                               ; preds = %19, %17
  %35 = landingpad { ptr, i32 }
          cleanup
  %36 = extractvalue { ptr, i32 } %35, 0
  store ptr %36, ptr %6, align 8
  %37 = extractvalue { ptr, i32 } %35, 1
  store i32 %37, ptr %7, align 4
  br label %47

38:                                               ; preds = %23, %21
  %39 = landingpad { ptr, i32 }
          cleanup
  %40 = extractvalue { ptr, i32 } %39, 0
  store ptr %40, ptr %6, align 8
  %41 = extractvalue { ptr, i32 } %39, 1
  store i32 %41, ptr %7, align 4
  br label %46

42:                                               ; preds = %27, %25
  %43 = landingpad { ptr, i32 }
          cleanup
  %44 = extractvalue { ptr, i32 } %43, 0
  store ptr %44, ptr %6, align 8
  %45 = extractvalue { ptr, i32 } %43, 1
  store i32 %45, ptr %7, align 4
  call void @llvm.lifetime.end.p0(i64 8, ptr %10) #6
  br label %46

46:                                               ; preds = %42, %38
  call void @llvm.lifetime.end.p0(i64 8, ptr %9) #6
  br label %47

47:                                               ; preds = %46, %34
  call void @llvm.lifetime.end.p0(i64 8, ptr %8) #6
  br label %48

48:                                               ; preds = %47, %30
  call void @llvm.lifetime.end.p0(i64 8, ptr %5) #6
  call void @_ZN5Eigen16CommaInitializerINS_6MatrixIdLi5ELi1ELi0ELi5ELi1EEEED2Ev(ptr noundef nonnull align 8 dereferenceable(32) %3) #6
  call void @llvm.lifetime.end.p0(i64 8, ptr %4) #6
  call void @llvm.lifetime.end.p0(i64 32, ptr %3) #6
  br label %49

49:                                               ; preds = %48
  %50 = load ptr, ptr %6, align 8
  %51 = load i32, ptr %7, align 4
  %52 = insertvalue { ptr, i32 } poison, ptr %50, 0
  %53 = insertvalue { ptr, i32 } %52, i32 %51, 1
  resume { ptr, i32 } %53
}