; Function Attrs: mustprogress nofree norecurse nosync nounwind willreturn memory(argmem: write) uwtable
define void @_ZN3g2o16VertexIntrinsics15setToOriginImplEv(ptr noundef nonnull writeonly align 16 captures(none) dereferenceable(240) initializes((176, 216)) %0) unnamed_addr #5 align 2 personality ptr @__gxx_personality_v0 {
  %2 = getelementptr inbounds nuw i8, ptr %0, i64 176
  store double 1.000000e+00, ptr %2, align 16, !tbaa !33, !noalias !50
  %3 = getelementptr inbounds nuw i8, ptr %0, i64 184
  store double 1.000000e+00, ptr %3, align 8, !tbaa !33
  %4 = getelementptr inbounds nuw i8, ptr %0, i64 192
  store double 5.000000e-01, ptr %4, align 16, !tbaa !33
  %5 = getelementptr inbounds nuw i8, ptr %0, i64 200
  store double 5.000000e-01, ptr %5, align 8, !tbaa !33
  %6 = getelementptr inbounds nuw i8, ptr %0, i64 208
  store double 1.000000e-01, ptr %6, align 16, !tbaa !33
  ret void
}